; ModuleID = 'source-C-CXX/51/1817.c'
source_filename = "source-C-CXX/51/1817.c"
target datalayout = "e-m:e-p270:32:32-p271:32:32-p272:64:64-i64:64-f80:128-n8:16:32:64-S128"
target triple = "x86_64-pc-linux-gnu"

@.str = private unnamed_addr constant [5 x i8] c"%d%d\00", align 1
@.str.1 = private unnamed_addr constant [3 x i8] c"%d\00", align 1
@.str.2 = private unnamed_addr constant [4 x i8] c"%d \00", align 1

; Function Attrs: nofree nounwind sspstrong uwtable
define dso_local void @main() local_unnamed_addr #0 {
  %1 = alloca [100 x i32], align 16
  %2 = alloca [100 x i32], align 16
  %3 = alloca i32, align 4
  %4 = alloca i32, align 4
  %5 = bitcast [100 x i32]* %2 to i8*
  call void @llvm.lifetime.start.p0i8(i64 400, i8* nonnull %5) #6
  %6 = bitcast i32* %3 to i8*
  call void @llvm.lifetime.start.p0i8(i64 4, i8* nonnull %6) #6
  %7 = bitcast i32* %4 to i8*
  call void @llvm.lifetime.start.p0i8(i64 4, i8* nonnull %7) #6
  %8 = call i32 (i8*, ...) @__isoc99_scanf(i8* getelementptr inbounds ([5 x i8], [5 x i8]* @.str, i64 0, i64 0), i32* nonnull %3, i32* nonnull %4)
  %9 = load i32, i32* %3, align 4, !tbaa !5
  %10 = icmp sgt i32 %9, 0
  br i1 %10, label %11, label %21

11:                                               ; preds = %0
  %12 = getelementptr inbounds [100 x i32], [100 x i32]* %2, i64 0, i64 0
  br label %13

13:                                               ; preds = %11, %13
  %14 = phi i32* [ %16, %13 ], [ %12, %11 ]
  %15 = phi i32 [ %18, %13 ], [ 0, %11 ]
  %16 = getelementptr inbounds i32, i32* %14, i64 1
  %17 = call i32 (i8*, ...) @__isoc99_scanf(i8* getelementptr inbounds ([3 x i8], [3 x i8]* @.str.1, i64 0, i64 0), i32* nonnull %14)
  %18 = add nuw nsw i32 %15, 1
  %19 = load i32, i32* %3, align 4, !tbaa !5
  %20 = icmp slt i32 %18, %19
  br i1 %20, label %13, label %21, !llvm.loop !9

21:                                               ; preds = %13, %0
  %22 = phi i32 [ %9, %0 ], [ %19, %13 ]
  %23 = load i32, i32* %4, align 4, !tbaa !5
  %24 = bitcast [100 x i32]* %1 to i8*
  call void @llvm.lifetime.start.p0i8(i64 400, i8* nonnull %24)
  %25 = sub i32 %22, %23
  %26 = icmp sgt i32 %25, 0
  br i1 %26, label %27, label %33

27:                                               ; preds = %21
  %28 = xor i32 %23, -1
  %29 = add i32 %22, %28
  %30 = zext i32 %29 to i64
  %31 = shl nuw nsw i64 %30, 2
  %32 = add nuw nsw i64 %31, 4
  call void @llvm.memcpy.p0i8.p0i8.i64(i8* noundef nonnull align 16 %24, i8* noundef nonnull align 16 dereferenceable(1) %5, i64 %32, i1 false) #6
  br label %33

33:                                               ; preds = %27, %21
  %34 = sub i32 %23, %22
  %35 = icmp sgt i32 %23, 0
  br i1 %35, label %36, label %124

36:                                               ; preds = %33
  %37 = sext i32 %25 to i64
  %38 = sext i32 %22 to i64
  %39 = add nsw i64 %37, 1
  %40 = call i64 @llvm.smax.i64(i64 %39, i64 %38)
  %41 = sub i64 %40, %37
  %42 = icmp ult i64 %41, 8
  br i1 %42, label %122, label %43

43:                                               ; preds = %36
  %44 = add nsw i64 %37, 1
  %45 = call i64 @llvm.smax.i64(i64 %44, i64 %38)
  %46 = xor i64 %37, -1
  %47 = add i64 %45, %46
  %48 = icmp ugt i64 %47, 2147483647
  br i1 %48, label %122, label %49

49:                                               ; preds = %43
  %50 = add nsw i64 %37, 1
  %51 = call i64 @llvm.smax.i64(i64 %50, i64 %38)
  %52 = sub i64 %51, %37
  %53 = getelementptr [100 x i32], [100 x i32]* %2, i64 0, i64 %52
  %54 = getelementptr [100 x i32], [100 x i32]* %2, i64 0, i64 %37
  %55 = getelementptr [100 x i32], [100 x i32]* %2, i64 0, i64 %51
  %56 = bitcast i32* %55 to [100 x i32]*
  %57 = icmp ult [100 x i32]* %2, %56
  %58 = icmp ult i32* %54, %53
  %59 = and i1 %57, %58
  br i1 %59, label %122, label %60

60:                                               ; preds = %49
  %61 = and i64 %41, -8
  %62 = add i64 %61, %37
  %63 = add i64 %61, -8
  %64 = lshr exact i64 %63, 3
  %65 = add nuw nsw i64 %64, 1
  %66 = and i64 %65, 1
  %67 = icmp eq i64 %63, 0
  br i1 %67, label %103, label %68

68:                                               ; preds = %60
  %69 = and i64 %65, 4611686018427387902
  br label %70

70:                                               ; preds = %70, %68
  %71 = phi i64 [ 0, %68 ], [ %100, %70 ]
  %72 = phi i64 [ %69, %68 ], [ %101, %70 ]
  %73 = add i64 %71, %37
  %74 = getelementptr inbounds [100 x i32], [100 x i32]* %2, i64 0, i64 %73
  %75 = bitcast i32* %74 to <4 x i32>*
  %76 = load <4 x i32>, <4 x i32>* %75, align 4, !tbaa !5, !alias.scope !11
  %77 = getelementptr inbounds i32, i32* %74, i64 4
  %78 = bitcast i32* %77 to <4 x i32>*
  %79 = load <4 x i32>, <4 x i32>* %78, align 4, !tbaa !5, !alias.scope !11
  %80 = shl i64 %71, 32
  %81 = ashr exact i64 %80, 32
  %82 = getelementptr inbounds [100 x i32], [100 x i32]* %2, i64 0, i64 %81
  %83 = bitcast i32* %82 to <4 x i32>*
  store <4 x i32> %76, <4 x i32>* %83, align 16, !tbaa !5, !alias.scope !14, !noalias !11
  %84 = getelementptr inbounds i32, i32* %82, i64 4
  %85 = bitcast i32* %84 to <4 x i32>*
  store <4 x i32> %79, <4 x i32>* %85, align 16, !tbaa !5, !alias.scope !14, !noalias !11
  %86 = or i64 %71, 8
  %87 = add i64 %86, %37
  %88 = getelementptr inbounds [100 x i32], [100 x i32]* %2, i64 0, i64 %87
  %89 = bitcast i32* %88 to <4 x i32>*
  %90 = load <4 x i32>, <4 x i32>* %89, align 4, !tbaa !5, !alias.scope !11
  %91 = getelementptr inbounds i32, i32* %88, i64 4
  %92 = bitcast i32* %91 to <4 x i32>*
  %93 = load <4 x i32>, <4 x i32>* %92, align 4, !tbaa !5, !alias.scope !11
  %94 = shl i64 %86, 32
  %95 = ashr exact i64 %94, 32
  %96 = getelementptr inbounds [100 x i32], [100 x i32]* %2, i64 0, i64 %95
  %97 = bitcast i32* %96 to <4 x i32>*
  store <4 x i32> %90, <4 x i32>* %97, align 16, !tbaa !5, !alias.scope !14, !noalias !11
  %98 = getelementptr inbounds i32, i32* %96, i64 4
  %99 = bitcast i32* %98 to <4 x i32>*
  store <4 x i32> %93, <4 x i32>* %99, align 16, !tbaa !5, !alias.scope !14, !noalias !11
  %100 = add nuw i64 %71, 16
  %101 = add i64 %72, -2
  %102 = icmp eq i64 %101, 0
  br i1 %102, label %103, label %70, !llvm.loop !16

103:                                              ; preds = %70, %60
  %104 = phi i64 [ 0, %60 ], [ %100, %70 ]
  %105 = icmp eq i64 %66, 0
  br i1 %105, label %120, label %106

106:                                              ; preds = %103
  %107 = add i64 %104, %37
  %108 = getelementptr inbounds [100 x i32], [100 x i32]* %2, i64 0, i64 %107
  %109 = bitcast i32* %108 to <4 x i32>*
  %110 = load <4 x i32>, <4 x i32>* %109, align 4, !tbaa !5, !alias.scope !11
  %111 = getelementptr inbounds i32, i32* %108, i64 4
  %112 = bitcast i32* %111 to <4 x i32>*
  %113 = load <4 x i32>, <4 x i32>* %112, align 4, !tbaa !5, !alias.scope !11
  %114 = shl i64 %104, 32
  %115 = ashr exact i64 %114, 32
  %116 = getelementptr inbounds [100 x i32], [100 x i32]* %2, i64 0, i64 %115
  %117 = bitcast i32* %116 to <4 x i32>*
  store <4 x i32> %110, <4 x i32>* %117, align 16, !tbaa !5, !alias.scope !14, !noalias !11
  %118 = getelementptr inbounds i32, i32* %116, i64 4
  %119 = bitcast i32* %118 to <4 x i32>*
  store <4 x i32> %113, <4 x i32>* %119, align 16, !tbaa !5, !alias.scope !14, !noalias !11
  br label %120

120:                                              ; preds = %103, %106
  %121 = icmp eq i64 %41, %61
  br i1 %121, label %124, label %122

122:                                              ; preds = %49, %43, %36, %120
  %123 = phi i64 [ %37, %49 ], [ %37, %43 ], [ %37, %36 ], [ %62, %120 ]
  br label %134

124:                                              ; preds = %134, %120, %33
  br i1 %26, label %125, label %144

125:                                              ; preds = %124
  %126 = sext i32 %23 to i64
  %127 = getelementptr [100 x i32], [100 x i32]* %2, i64 0, i64 %126
  %128 = bitcast i32* %127 to i8*
  %129 = xor i32 %23, -1
  %130 = add i32 %22, %129
  %131 = zext i32 %130 to i64
  %132 = shl nuw nsw i64 %131, 2
  %133 = add nuw nsw i64 %132, 4
  call void @llvm.memcpy.p0i8.p0i8.i64(i8* noundef nonnull align 4 dereferenceable(1) %128, i8* noundef nonnull align 16 %24, i64 %133, i1 false) #6
  br label %144

134:                                              ; preds = %122, %134
  %135 = phi i64 [ %142, %134 ], [ %123, %122 ]
  %136 = getelementptr inbounds [100 x i32], [100 x i32]* %2, i64 0, i64 %135
  %137 = load i32, i32* %136, align 4, !tbaa !5
  %138 = trunc i64 %135 to i32
  %139 = add i32 %34, %138
  %140 = sext i32 %139 to i64
  %141 = getelementptr inbounds [100 x i32], [100 x i32]* %2, i64 0, i64 %140
  store i32 %137, i32* %141, align 4, !tbaa !5
  %142 = add nsw i64 %135, 1
  %143 = icmp slt i64 %142, %38
  br i1 %143, label %134, label %124, !llvm.loop !18

144:                                              ; preds = %124, %125
  call void @llvm.lifetime.end.p0i8(i64 400, i8* nonnull %24)
  %145 = icmp sgt i32 %22, 1
  br i1 %145, label %146, label %156

146:                                              ; preds = %144, %146
  %147 = phi i64 [ %151, %146 ], [ 0, %144 ]
  %148 = getelementptr inbounds [100 x i32], [100 x i32]* %2, i64 0, i64 %147
  %149 = load i32, i32* %148, align 4, !tbaa !5
  %150 = call i32 (i8*, ...) @printf(i8* nonnull dereferenceable(1) getelementptr inbounds ([4 x i8], [4 x i8]* @.str.2, i64 0, i64 0), i32 %149)
  %151 = add nuw nsw i64 %147, 1
  %152 = load i32, i32* %3, align 4, !tbaa !5
  %153 = add nsw i32 %152, -1
  %154 = sext i32 %153 to i64
  %155 = icmp slt i64 %151, %154
  br i1 %155, label %146, label %156, !llvm.loop !19

156:                                              ; preds = %146, %144
  %157 = phi i32 [ %22, %144 ], [ %152, %146 ]
  %158 = sext i32 %157 to i64
  %159 = getelementptr inbounds [100 x i32], [100 x i32]* %2, i64 0, i64 %158
  %160 = getelementptr inbounds i32, i32* %159, i64 -1
  %161 = load i32, i32* %160, align 4, !tbaa !5
  %162 = call i32 (i8*, ...) @printf(i8* nonnull dereferenceable(1) getelementptr inbounds ([3 x i8], [3 x i8]* @.str.1, i64 0, i64 0), i32 %161)
  call void @llvm.lifetime.end.p0i8(i64 4, i8* nonnull %7) #6
  call void @llvm.lifetime.end.p0i8(i64 4, i8* nonnull %6) #6
  call void @llvm.lifetime.end.p0i8(i64 400, i8* nonnull %5) #6
  ret void
}

; Function Attrs: argmemonly mustprogress nofree nosync nounwind willreturn
declare void @llvm.lifetime.start.p0i8(i64 immarg, i8* nocapture) #1

; Function Attrs: nofree nounwind
declare noundef i32 @__isoc99_scanf(i8* nocapture noundef readonly, ...) local_unnamed_addr #2

; Function Attrs: nofree nosync nounwind sspstrong uwtable
define dso_local void @inv(i32* nocapture %0, i32 %1, i32 %2) local_unnamed_addr #3 {
  %4 = alloca [100 x i32], align 16
  %5 = bitcast [100 x i32]* %4 to i8*
  call void @llvm.lifetime.start.p0i8(i64 400, i8* nonnull %5)
  %6 = sub i32 %1, %2
  %7 = icmp sgt i32 %6, 0
  br i1 %7, label %8, label %15

8:                                                ; preds = %3
  %9 = bitcast i32* %0 to i8*
  %10 = xor i32 %2, -1
  %11 = add i32 %10, %1
  %12 = zext i32 %11 to i64
  %13 = shl nuw nsw i64 %12, 2
  %14 = add nuw nsw i64 %13, 4
  call void @llvm.memcpy.p0i8.p0i8.i64(i8* noundef nonnull align 16 %5, i8* noundef nonnull align 4 dereferenceable(1) %9, i64 %14, i1 false)
  br label %15

15:                                               ; preds = %8, %3
  %16 = sub i32 %2, %1
  %17 = icmp sgt i32 %2, 0
  br i1 %17, label %18, label %105

18:                                               ; preds = %15
  %19 = sext i32 %6 to i64
  %20 = sext i32 %1 to i64
  %21 = add nsw i64 %19, 1
  %22 = call i64 @llvm.smax.i64(i64 %21, i64 %20)
  %23 = sub i64 %22, %19
  %24 = icmp ult i64 %23, 8
  br i1 %24, label %103, label %25

25:                                               ; preds = %18
  %26 = add nsw i64 %19, 1
  %27 = call i64 @llvm.smax.i64(i64 %26, i64 %20)
  %28 = xor i64 %19, -1
  %29 = add i64 %27, %28
  %30 = icmp ugt i64 %29, 2147483647
  br i1 %30, label %103, label %31

31:                                               ; preds = %25
  %32 = add nsw i64 %19, 1
  %33 = call i64 @llvm.smax.i64(i64 %32, i64 %20)
  %34 = sub i64 %33, %19
  %35 = getelementptr i32, i32* %0, i64 %34
  %36 = getelementptr i32, i32* %0, i64 %19
  %37 = getelementptr i32, i32* %0, i64 %33
  %38 = icmp ugt i32* %37, %0
  %39 = icmp ult i32* %36, %35
  %40 = and i1 %38, %39
  br i1 %40, label %103, label %41

41:                                               ; preds = %31
  %42 = and i64 %23, -8
  %43 = add i64 %42, %19
  %44 = add i64 %42, -8
  %45 = lshr exact i64 %44, 3
  %46 = add nuw nsw i64 %45, 1
  %47 = and i64 %46, 1
  %48 = icmp eq i64 %44, 0
  br i1 %48, label %84, label %49

49:                                               ; preds = %41
  %50 = and i64 %46, 4611686018427387902
  br label %51

51:                                               ; preds = %51, %49
  %52 = phi i64 [ 0, %49 ], [ %81, %51 ]
  %53 = phi i64 [ %50, %49 ], [ %82, %51 ]
  %54 = add i64 %52, %19
  %55 = getelementptr inbounds i32, i32* %0, i64 %54
  %56 = bitcast i32* %55 to <4 x i32>*
  %57 = load <4 x i32>, <4 x i32>* %56, align 4, !tbaa !5, !alias.scope !20
  %58 = getelementptr inbounds i32, i32* %55, i64 4
  %59 = bitcast i32* %58 to <4 x i32>*
  %60 = load <4 x i32>, <4 x i32>* %59, align 4, !tbaa !5, !alias.scope !20
  %61 = shl i64 %52, 32
  %62 = ashr exact i64 %61, 32
  %63 = getelementptr inbounds i32, i32* %0, i64 %62
  %64 = bitcast i32* %63 to <4 x i32>*
  store <4 x i32> %57, <4 x i32>* %64, align 4, !tbaa !5, !alias.scope !23, !noalias !20
  %65 = getelementptr inbounds i32, i32* %63, i64 4
  %66 = bitcast i32* %65 to <4 x i32>*
  store <4 x i32> %60, <4 x i32>* %66, align 4, !tbaa !5, !alias.scope !23, !noalias !20
  %67 = or i64 %52, 8
  %68 = add i64 %67, %19
  %69 = getelementptr inbounds i32, i32* %0, i64 %68
  %70 = bitcast i32* %69 to <4 x i32>*
  %71 = load <4 x i32>, <4 x i32>* %70, align 4, !tbaa !5, !alias.scope !20
  %72 = getelementptr inbounds i32, i32* %69, i64 4
  %73 = bitcast i32* %72 to <4 x i32>*
  %74 = load <4 x i32>, <4 x i32>* %73, align 4, !tbaa !5, !alias.scope !20
  %75 = shl i64 %67, 32
  %76 = ashr exact i64 %75, 32
  %77 = getelementptr inbounds i32, i32* %0, i64 %76
  %78 = bitcast i32* %77 to <4 x i32>*
  store <4 x i32> %71, <4 x i32>* %78, align 4, !tbaa !5, !alias.scope !23, !noalias !20
  %79 = getelementptr inbounds i32, i32* %77, i64 4
  %80 = bitcast i32* %79 to <4 x i32>*
  store <4 x i32> %74, <4 x i32>* %80, align 4, !tbaa !5, !alias.scope !23, !noalias !20
  %81 = add nuw i64 %52, 16
  %82 = add i64 %53, -2
  %83 = icmp eq i64 %82, 0
  br i1 %83, label %84, label %51, !llvm.loop !25

84:                                               ; preds = %51, %41
  %85 = phi i64 [ 0, %41 ], [ %81, %51 ]
  %86 = icmp eq i64 %47, 0
  br i1 %86, label %101, label %87

87:                                               ; preds = %84
  %88 = add i64 %85, %19
  %89 = getelementptr inbounds i32, i32* %0, i64 %88
  %90 = bitcast i32* %89 to <4 x i32>*
  %91 = load <4 x i32>, <4 x i32>* %90, align 4, !tbaa !5, !alias.scope !20
  %92 = getelementptr inbounds i32, i32* %89, i64 4
  %93 = bitcast i32* %92 to <4 x i32>*
  %94 = load <4 x i32>, <4 x i32>* %93, align 4, !tbaa !5, !alias.scope !20
  %95 = shl i64 %85, 32
  %96 = ashr exact i64 %95, 32
  %97 = getelementptr inbounds i32, i32* %0, i64 %96
  %98 = bitcast i32* %97 to <4 x i32>*
  store <4 x i32> %91, <4 x i32>* %98, align 4, !tbaa !5, !alias.scope !23, !noalias !20
  %99 = getelementptr inbounds i32, i32* %97, i64 4
  %100 = bitcast i32* %99 to <4 x i32>*
  store <4 x i32> %94, <4 x i32>* %100, align 4, !tbaa !5, !alias.scope !23, !noalias !20
  br label %101

101:                                              ; preds = %84, %87
  %102 = icmp eq i64 %23, %42
  br i1 %102, label %105, label %103

103:                                              ; preds = %31, %25, %18, %101
  %104 = phi i64 [ %19, %31 ], [ %19, %25 ], [ %19, %18 ], [ %43, %101 ]
  br label %115

105:                                              ; preds = %115, %101, %15
  br i1 %7, label %106, label %125

106:                                              ; preds = %105
  %107 = sext i32 %2 to i64
  %108 = getelementptr i32, i32* %0, i64 %107
  %109 = bitcast i32* %108 to i8*
  %110 = xor i32 %2, -1
  %111 = add i32 %110, %1
  %112 = zext i32 %111 to i64
  %113 = shl nuw nsw i64 %112, 2
  %114 = add nuw nsw i64 %113, 4
  call void @llvm.memcpy.p0i8.p0i8.i64(i8* noundef nonnull align 4 dereferenceable(1) %109, i8* noundef nonnull align 16 %5, i64 %114, i1 false)
  br label %125

115:                                              ; preds = %103, %115
  %116 = phi i64 [ %123, %115 ], [ %104, %103 ]
  %117 = getelementptr inbounds i32, i32* %0, i64 %116
  %118 = load i32, i32* %117, align 4, !tbaa !5
  %119 = trunc i64 %116 to i32
  %120 = add i32 %16, %119
  %121 = sext i32 %120 to i64
  %122 = getelementptr inbounds i32, i32* %0, i64 %121
  store i32 %118, i32* %122, align 4, !tbaa !5
  %123 = add nsw i64 %116, 1
  %124 = icmp slt i64 %123, %20
  br i1 %124, label %115, label %105, !llvm.loop !26

125:                                              ; preds = %106, %105
  call void @llvm.lifetime.end.p0i8(i64 400, i8* nonnull %5)
  ret void
}

; Function Attrs: nofree nounwind
declare noundef i32 @printf(i8* nocapture noundef readonly, ...) local_unnamed_addr #2

; Function Attrs: argmemonly mustprogress nofree nosync nounwind willreturn
declare void @llvm.lifetime.end.p0i8(i64 immarg, i8* nocapture) #1

; Function Attrs: argmemonly nofree nounwind willreturn
declare void @llvm.memcpy.p0i8.p0i8.i64(i8* noalias nocapture writeonly, i8* noalias nocapture readonly, i64, i1 immarg) #4

; Function Attrs: nofree nosync nounwind readnone speculatable willreturn
declare i64 @llvm.smax.i64(i64, i64) #5


!llvm.module.flags = !{!0, !1, !2, !3}
!llvm.ident = !{!4}

!0 = !{i32 1, !"wchar_size", i32 4}
!1 = !{i32 7, !"PIC Level", i32 2}
!2 = !{i32 7, !"PIE Level", i32 2}
!3 = !{i32 7, !"uwtable", i32 1}
!4 = !{!"clang version 13.0.0"}
!5 = !{!6, !6, i64 0}
!6 = !{!"int", !7, i64 0}
!7 = !{!"omnipotent char", !8, i64 0}
!8 = !{!"Simple C/C++ TBAA"}
!9 = distinct !{!9, !10}
!10 = !{!"llvm.loop.mustprogress"}
!11 = !{!12}
!12 = distinct !{!12, !13}
!13 = distinct !{!13, !"LVerDomain"}
!14 = !{!15}
!15 = distinct !{!15, !13}
!16 = distinct !{!16, !10, !17}
!17 = !{!"llvm.loop.isvectorized", i32 1}
!18 = distinct !{!18, !10, !17}
!19 = distinct !{!19, !10}
!20 = !{!21}
!21 = distinct !{!21, !22}
!22 = distinct !{!22, !"LVerDomain"}
!23 = !{!24}
!24 = distinct !{!24, !22}
!25 = distinct !{!25, !10, !17}
!26 = distinct !{!26, !10, !17}
